target datalayout = "e-m:e-p270:32:32-p271:32:32-p272:64:64-i64:64-i128:128-f80:128-n8:16:32:64-S128"
target triple = "x86_64-pc-linux-gnu"

%struct.SurfaceDataRasInfo = type { %struct.SurfaceDataBounds, ptr, i32, i32, i32, i32, ptr, ptr, ptr, ptr, ptr, ptr, i32, %union.anon.0 }
%struct.SurfaceDataBounds = type { i32, i32, i32, i32 }
%union.anon.0 = type { ptr, [56 x i8] }
%struct._CompositeInfo = type { i32, %union.anon.1, i32 }
%union.anon.1 = type { float }

; Function Attrs: nounwind uwtable
define hidden void @IntArgbToUshort565RgbXorBlit(ptr noundef %0, ptr noundef %1, i32 noundef %2, i32 noundef %3, ptr noundef %4, ptr noundef %5, ptr noundef %6, ptr noundef %7) #1 {
  %9 = alloca ptr, align 8
  %10 = alloca ptr, align 8
  %11 = alloca i32, align 4
  %12 = alloca i32, align 4
  %13 = alloca ptr, align 8
  %14 = alloca ptr, align 8
  %15 = alloca ptr, align 8
  %16 = alloca ptr, align 8
  %17 = alloca i32, align 4
  %18 = alloca i32, align 4
  %19 = alloca ptr, align 8
  %20 = alloca ptr, align 8
  %21 = alloca i32, align 4
  %22 = alloca i32, align 4
  %23 = alloca i32, align 4
  %24 = alloca i32, align 4
  store ptr %0, ptr %9, align 8
  store ptr %1, ptr %10, align 8
  store i32 %2, ptr %11, align 4
  store i32 %3, ptr %12, align 4
  store ptr %4, ptr %13, align 8
  store ptr %5, ptr %14, align 8
  store ptr %6, ptr %15, align 8
  store ptr %7, ptr %16, align 8
  %25 = load ptr, ptr %16, align 8
  %26 = getelementptr inbounds %struct._CompositeInfo, ptr %25, i32 0, i32 1
  %27 = load i32, ptr %26, align 4
  store i32 %27, ptr %17, align 4
  %28 = load ptr, ptr %16, align 8
  %29 = getelementptr inbounds %struct._CompositeInfo, ptr %28, i32 0, i32 2
  %30 = load i32, ptr %29, align 4
  store i32 %30, ptr %18, align 4
  br label %31

31:                                               ; preds = %8
  %32 = load ptr, ptr %9, align 8
  store ptr %32, ptr %19, align 8
  %33 = load ptr, ptr %10, align 8
  store ptr %33, ptr %20, align 8
  %34 = load ptr, ptr %13, align 8
  %35 = getelementptr inbounds %struct.SurfaceDataRasInfo, ptr %34, i32 0, i32 4
  %36 = load i32, ptr %35, align 8
  store i32 %36, ptr %21, align 4
  %37 = load ptr, ptr %14, align 8
  %38 = getelementptr inbounds %struct.SurfaceDataRasInfo, ptr %37, i32 0, i32 4
  %39 = load i32, ptr %38, align 8
  store i32 %39, ptr %22, align 4
  %40 = load i32, ptr %11, align 4
  %41 = mul i32 %40, 4
  %42 = load i32, ptr %21, align 4
  %43 = sub i32 %42, %41
  store i32 %43, ptr %21, align 4
  %44 = load i32, ptr %11, align 4
  %45 = mul i32 %44, 2
  %46 = load i32, ptr %22, align 4
  %47 = sub i32 %46, %45
  store i32 %47, ptr %22, align 4
  br label %48

48:                                               ; preds = %110, %31
  %49 = load i32, ptr %11, align 4
  store i32 %49, ptr %23, align 4
  br label %50

50:                                               ; preds = %93, %48
  br label %51

51:                                               ; preds = %50
  %52 = load ptr, ptr %19, align 8
  %53 = getelementptr inbounds i32, ptr %52, i64 0
  %54 = load i32, ptr %53, align 4
  store i32 %54, ptr %24, align 4
  %55 = load i32, ptr %24, align 4
  %56 = icmp sge i32 %55, 0
  br i1 %56, label %57, label %58

57:                                               ; preds = %51
  br label %84

58:                                               ; preds = %51
  %59 = load i32, ptr %24, align 4
  %60 = ashr i32 %59, 8
  %61 = and i32 %60, 63488
  %62 = load i32, ptr %24, align 4
  %63 = ashr i32 %62, 5
  %64 = and i32 %63, 2016
  %65 = or i32 %61, %64
  %66 = load i32, ptr %24, align 4
  %67 = ashr i32 %66, 3
  %68 = and i32 %67, 31
  %69 = or i32 %65, %68
  %70 = trunc i32 %69 to i16
  %71 = zext i16 %70 to i32
  store i32 %71, ptr %24, align 4
  %72 = load i32, ptr %24, align 4
  %73 = load i32, ptr %17, align 4
  %74 = xor i32 %72, %73
  %75 = load i32, ptr %18, align 4
  %76 = xor i32 %75, -1
  %77 = and i32 %74, %76
  %78 = load ptr, ptr %20, align 8
  %79 = getelementptr inbounds i16, ptr %78, i64 0
  %80 = load i16, ptr %79, align 2
  %81 = zext i16 %80 to i32
  %82 = xor i32 %81, %77
  %83 = trunc i32 %82 to i16
  store i16 %83, ptr %79, align 2
  br label %84

84:                                               ; preds = %58, %57
  %85 = load ptr, ptr %19, align 8
  %86 = ptrtoint ptr %85 to i64
  %87 = add nsw i64 %86, 4
  %88 = inttoptr i64 %87 to ptr
  store ptr %88, ptr %19, align 8
  %89 = load ptr, ptr %20, align 8
  %90 = ptrtoint ptr %89 to i64
  %91 = add nsw i64 %90, 2
  %92 = inttoptr i64 %91 to ptr
  store ptr %92, ptr %20, align 8
  br label %93

93:                                               ; preds = %84
  %94 = load i32, ptr %23, align 4
  %95 = add i32 %94, -1
  store i32 %95, ptr %23, align 4
  %96 = icmp ugt i32 %95, 0
  br i1 %96, label %50, label %97, !llvm.loop !49

97:                                               ; preds = %93
  %98 = load ptr, ptr %19, align 8
  %99 = ptrtoint ptr %98 to i64
  %100 = load i32, ptr %21, align 4
  %101 = sext i32 %100 to i64
  %102 = add nsw i64 %99, %101
  %103 = inttoptr i64 %102 to ptr
  store ptr %103, ptr %19, align 8
  %104 = load ptr, ptr %20, align 8
  %105 = ptrtoint ptr %104 to i64
  %106 = load i32, ptr %22, align 4
  %107 = sext i32 %106 to i64
  %108 = add nsw i64 %105, %107
  %109 = inttoptr i64 %108 to ptr
  store ptr %109, ptr %20, align 8
  br label %110

110:                                              ; preds = %97
  %111 = load i32, ptr %12, align 4
  %112 = add i32 %111, -1
  store i32 %112, ptr %12, align 4
  %113 = icmp ugt i32 %112, 0
  br i1 %113, label %48, label %114, !llvm.loop !50

114:                                              ; preds = %110
  br label %115

115:                                              ; preds = %114
  ret void
}