; Function Attrs: nofree norecurse nosync nounwind memory(readwrite, inaccessiblemem: none) uwtable
define hidden void @IntArgbToUshort565RgbXorBlit(ptr noundef %0, ptr noundef %1, i32 noundef %2, i32 noundef %3, ptr nocapture noundef readonly %4, ptr nocapture noundef readonly %5, ptr nocapture readnone %6, ptr nocapture noundef readonly %7) #1 {
  %9 = getelementptr inbounds i8, ptr %7, i64 4
  %10 = load i32, ptr %9, align 4
  %11 = getelementptr inbounds i8, ptr %7, i64 8
  %12 = load i32, ptr %11, align 4
  %13 = getelementptr inbounds i8, ptr %4, i64 32
  %14 = load i32, ptr %13, align 8
  %15 = getelementptr inbounds i8, ptr %5, i64 32
  %16 = load i32, ptr %15, align 8
  %17 = shl i32 %2, 2
  %18 = sub i32 %14, %17
  %19 = shl i32 %2, 1
  %20 = sub i32 %16, %19
  %21 = sext i32 %18 to i64
  %22 = xor i32 %12, -1
  %23 = sext i32 %20 to i64
  br label %24

24:                                               ; preds = %50, %8
  %.030 = phi i32 [ %3, %8 ], [ %55, %50 ]
  %.028 = phi ptr [ %0, %8 ], [ %52, %50 ]
  %.027 = phi ptr [ %1, %8 ], [ %54, %50 ]
  br label %25

25:                                               ; preds = %42, %24
  %.129 = phi ptr [ %.028, %24 ], [ %45, %42 ]
  %.1 = phi ptr [ %.027, %24 ], [ %48, %42 ]
  %.0 = phi i32 [ %2, %24 ], [ %49, %42 ]
  %26 = load i32, ptr %.129, align 4
  %27 = icmp sgt i32 %26, -1
  br i1 %27, label %42, label %28

28:                                               ; preds = %25
  %29 = lshr i32 %26, 8
  %30 = and i32 %29, 63488
  %31 = lshr i32 %26, 5
  %32 = and i32 %31, 2016
  %33 = or disjoint i32 %30, %32
  %34 = lshr i32 %26, 3
  %35 = and i32 %34, 31
  %36 = or disjoint i32 %33, %35
  %37 = xor i32 %36, %10
  %38 = and i32 %37, %22
  %39 = load i16, ptr %.1, align 2
  %40 = trunc i32 %38 to i16
  %41 = xor i16 %39, %40
  store i16 %41, ptr %.1, align 2
  br label %42

42:                                               ; preds = %25, %28
  %43 = ptrtoint ptr %.129 to i64
  %44 = add nsw i64 %43, 4
  %45 = inttoptr i64 %44 to ptr
  %46 = ptrtoint ptr %.1 to i64
  %47 = add nsw i64 %46, 2
  %48 = inttoptr i64 %47 to ptr
  %49 = add i32 %.0, -1
  %.not = icmp eq i32 %49, 0
  br i1 %.not, label %50, label %25, !llvm.loop !45

50:                                               ; preds = %42
  %51 = add nsw i64 %44, %21
  %52 = inttoptr i64 %51 to ptr
  %53 = add nsw i64 %47, %23
  %54 = inttoptr i64 %53 to ptr
  %55 = add i32 %.030, -1
  %.not34 = icmp eq i32 %55, 0
  br i1 %.not34, label %56, label %24, !llvm.loop !46

56:                                               ; preds = %50
  ret void
}